target datalayout = "e-m:e-p270:32:32-p271:32:32-p272:64:64-i64:64-i128:128-f80:128-n8:16:32:64-S128"
target triple = "x86_64-pc-linux-gnu"

%struct._ref_time_frame_info = type { ptr, i64, %struct.nstime_t, i32 }
%struct.nstime_t = type { i64, i32 }
%struct._packet_info = type { ptr, ptr, i32, i32, %struct.nstime_t, %struct.nstime_t, %struct.nstime_t, i8, ptr, ptr, ptr, ptr, %struct._address, %struct._address, %struct._address, %struct._address, %struct._address, %struct._address, i32, ptr, i8, [3 x i8], %struct.anon, i32, i32, i32, i32, ptr, i8, ptr, ptr, i16, i16, i32, i32, i16, i32, i32, ptr, ptr, ptr, i8, i8, i16, i16, i16, i32, i16, i16, ptr, ptr, ptr, ptr, ptr, i32, i32 }
%struct._address = type { i32, i32, ptr, ptr }
%struct.anon = type { i8, [3 x i8] }
%struct._frame_data = type <{ i32, i32, i32, i32, i32, [4 x i8], i64, ptr, ptr, ptr, i8, i16, [5 x i8], %struct.nstime_t, %struct.nstime_t, i32, i32 }>

@eth_withoutfcs_handle = internal global ptr null, align 8
@dissect_esl_heur.in_heur = internal global i8 0, align 1
@ref_time_frame = internal global %struct._ref_time_frame_info zeroinitializer, align 8

; Function Attrs: null_pointer_is_valid sspstrong uwtable
define internal zeroext i1 @dissect_esl_heur(ptr noundef %0, ptr noundef %1, ptr noundef %2, ptr noundef %3) #0 {
  %5 = alloca i1, align 1
  %6 = alloca ptr, align 8
  %7 = alloca ptr, align 8
  %8 = alloca ptr, align 8
  %9 = alloca ptr, align 8
  %10 = alloca i8, align 1
  %11 = alloca ptr, align 8
  %12 = alloca i32, align 4
  %13 = alloca i32, align 4
  store ptr %0, ptr %6, align 8
  store ptr %1, ptr %7, align 8
  store ptr %2, ptr %8, align 8
  store ptr %3, ptr %9, align 8
  call void @llvm.lifetime.start.p0(i64 1, ptr %10) #5
  call void @llvm.lifetime.start.p0(i64 8, ptr %11) #5
  call void @llvm.lifetime.start.p0(i64 4, ptr %12) #5
  %14 = load ptr, ptr %6, align 8
  %15 = call i32 @tvb_captured_length(ptr noundef %14)
  store i32 %15, ptr %12, align 4
  %16 = load i8, ptr @dissect_esl_heur.in_heur, align 1, !range !6, !noundef !7
  %17 = trunc i8 %16 to i1
  br i1 %17, label %18, label %19

18:                                               ; preds = %4
  store i1 false, ptr %5, align 1
  store i32 1, ptr %13, align 4
  br label %102

19:                                               ; preds = %4
  store i8 1, ptr @dissect_esl_heur.in_heur, align 1
  %20 = load ptr, ptr @ref_time_frame, align 8
  %21 = icmp ne ptr %20, null
  br i1 %21, label %22, label %39

22:                                               ; preds = %19
  %23 = load ptr, ptr %7, align 8
  %24 = getelementptr inbounds nuw %struct._packet_info, ptr %23, i32 0, i32 8
  %25 = load ptr, ptr %24, align 8
  %26 = getelementptr inbounds nuw %struct._frame_data, ptr %25, i32 0, i32 11
  %27 = load i16, ptr %26, align 1
  %28 = lshr i16 %27, 3
  %29 = and i16 %28, 1
  %30 = zext i16 %29 to i32
  %31 = icmp ne i32 %30, 0
  br i1 %31, label %39, label %32

32:                                               ; preds = %22
  %33 = load ptr, ptr %7, align 8
  %34 = getelementptr inbounds nuw %struct._packet_info, ptr %33, i32 0, i32 3
  %35 = load i32, ptr %34, align 4
  %36 = load i32, ptr getelementptr inbounds nuw (%struct._ref_time_frame_info, ptr @ref_time_frame, i32 0, i32 3), align 8
  %37 = icmp ule i32 %35, %36
  br i1 %37, label %38, label %39

38:                                               ; preds = %32
  store ptr null, ptr @ref_time_frame, align 8
  br label %39

39:                                               ; preds = %38, %32, %22, %19
  %40 = load i32, ptr %12, align 4
  %41 = icmp ult i32 %40, 16
  br i1 %41, label %42, label %43

42:                                               ; preds = %39
  store i1 false, ptr %5, align 1
  store i32 1, ptr %13, align 4
  br label %102

43:                                               ; preds = %39
  %44 = load ptr, ptr %6, align 8
  %45 = call zeroext i1 @is_esl_header(ptr noundef %44, i32 noundef 0)
  br i1 %45, label %46, label %65

46:                                               ; preds = %43
  %47 = load ptr, ptr %6, align 8
  %48 = load ptr, ptr %7, align 8
  %49 = load ptr, ptr %8, align 8
  %50 = load ptr, ptr %9, align 8
  %51 = call i32 @dissect_esl_header(ptr noundef %47, ptr noundef %48, ptr noundef %49, ptr noundef %50)
  %52 = load ptr, ptr @eth_withoutfcs_handle, align 8
  %53 = icmp ne ptr %52, null
  br i1 %53, label %54, label %62

54:                                               ; preds = %46
  %55 = load ptr, ptr %6, align 8
  %56 = call ptr @tvb_new_subset_remaining(ptr noundef %55, i32 noundef 16)
  store ptr %56, ptr %11, align 8
  %57 = load ptr, ptr @eth_withoutfcs_handle, align 8
  %58 = load ptr, ptr %11, align 8
  %59 = load ptr, ptr %7, align 8
  %60 = load ptr, ptr %8, align 8
  %61 = call i32 @call_dissector(ptr noundef %57, ptr noundef %58, ptr noundef %59, ptr noundef %60)
  br label %62

62:                                               ; preds = %54, %46
  %63 = load ptr, ptr %6, align 8
  %64 = load ptr, ptr %7, align 8
  call void @modify_times(ptr noundef %63, i32 noundef 0, ptr noundef %64)
  store i8 1, ptr %10, align 1
  br label %99

65:                                               ; preds = %43
  %66 = load ptr, ptr %6, align 8
  %67 = load i32, ptr %12, align 4
  %68 = sub i32 %67, 16
  %69 = call zeroext i1 @is_esl_header(ptr noundef %66, i32 noundef %68)
  br i1 %69, label %70, label %97

70:                                               ; preds = %65
  %71 = load ptr, ptr @eth_withoutfcs_handle, align 8
  %72 = icmp ne ptr %71, null
  br i1 %72, label %73, label %83

73:                                               ; preds = %70
  %74 = load ptr, ptr %6, align 8
  %75 = load i32, ptr %12, align 4
  %76 = sub i32 %75, 16
  %77 = call ptr @tvb_new_subset_length(ptr noundef %74, i32 noundef 0, i32 noundef %76)
  store ptr %77, ptr %11, align 8
  %78 = load ptr, ptr @eth_withoutfcs_handle, align 8
  %79 = load ptr, ptr %11, align 8
  %80 = load ptr, ptr %7, align 8
  %81 = load ptr, ptr %8, align 8
  %82 = call i32 @call_dissector(ptr noundef %78, ptr noundef %79, ptr noundef %80, ptr noundef %81)
  br label %83

83:                                               ; preds = %73, %70
  %84 = load ptr, ptr %6, align 8
  %85 = load i32, ptr %12, align 4
  %86 = sub i32 %85, 16
  %87 = call ptr @tvb_new_subset_length(ptr noundef %84, i32 noundef %86, i32 noundef 16)
  store ptr %87, ptr %11, align 8
  %88 = load ptr, ptr %11, align 8
  %89 = load ptr, ptr %7, align 8
  %90 = load ptr, ptr %8, align 8
  %91 = load ptr, ptr %9, align 8
  %92 = call i32 @dissect_esl_header(ptr noundef %88, ptr noundef %89, ptr noundef %90, ptr noundef %91)
  %93 = load ptr, ptr %6, align 8
  %94 = load i32, ptr %12, align 4
  %95 = sub i32 %94, 16
  %96 = load ptr, ptr %7, align 8
  call void @modify_times(ptr noundef %93, i32 noundef %95, ptr noundef %96)
  store i8 1, ptr %10, align 1
  br label %98

97:                                               ; preds = %65
  store i8 0, ptr %10, align 1
  br label %98

98:                                               ; preds = %97, %83
  br label %99

99:                                               ; preds = %98, %62
  store i8 0, ptr @dissect_esl_heur.in_heur, align 1
  %100 = load i8, ptr %10, align 1, !range !6, !noundef !7
  %101 = trunc i8 %100 to i1
  store i1 %101, ptr %5, align 1
  store i32 1, ptr %13, align 4
  br label %102

102:                                              ; preds = %99, %42, %18
  call void @llvm.lifetime.end.p0(i64 4, ptr %12) #5
  call void @llvm.lifetime.end.p0(i64 8, ptr %11) #5
  call void @llvm.lifetime.end.p0(i64 1, ptr %10) #5
  %103 = load i1, ptr %5, align 1
  ret i1 %103
}