; Function Attrs: null_pointer_is_valid sspstrong uwtable
define internal noundef zeroext i1 @dissect_esl_heur(ptr noundef %0, ptr noundef %1, ptr noundef %2, ptr readnone captures(none) %3) #0 {
  %5 = tail call i32 @tvb_captured_length(ptr noundef %0)
  %.b34 = load i1, ptr @dissect_esl_heur.in_heur, align 1
  br i1 %.b34, label %43, label %6

6:                                                ; preds = %4
  store i1 true, ptr @dissect_esl_heur.in_heur, align 1
  %7 = load ptr, ptr @ref_time_frame, align 8
  %.not = icmp eq ptr %7, null
  br i1 %.not, label %19, label %8

8:                                                ; preds = %6
  %9 = getelementptr inbounds nuw i8, ptr %1, i64 80
  %10 = load ptr, ptr %9, align 8
  %11 = getelementptr inbounds nuw i8, ptr %10, i64 57
  %12 = load i16, ptr %11, align 1
  %13 = and i16 %12, 8
  %.not35 = icmp eq i16 %13, 0
  br i1 %.not35, label %14, label %19

14:                                               ; preds = %8
  %15 = getelementptr inbounds nuw i8, ptr %1, i64 20
  %16 = load i32, ptr %15, align 4
  %17 = load i32, ptr getelementptr inbounds nuw (i8, ptr @ref_time_frame, i64 32), align 8
  %.not36 = icmp ugt i32 %16, %17
  br i1 %.not36, label %19, label %18

18:                                               ; preds = %14
  store ptr null, ptr @ref_time_frame, align 8
  br label %19

19:                                               ; preds = %18, %14, %8, %6
  %20 = icmp ult i32 %5, 16
  br i1 %20, label %43, label %21

21:                                               ; preds = %19
  %22 = tail call fastcc zeroext i1 @is_esl_header(ptr noundef %0, i32 noundef 0)
  br i1 %22, label %23, label %30

23:                                               ; preds = %21
  %24 = tail call i32 @dissect_esl_header(ptr noundef %0, ptr poison, ptr noundef %2, ptr poison)
  %25 = load ptr, ptr @eth_withoutfcs_handle, align 8
  %.not38 = icmp eq ptr %25, null
  br i1 %.not38, label %.sink.split, label %26

26:                                               ; preds = %23
  %27 = tail call ptr @tvb_new_subset_remaining(ptr noundef %0, i32 noundef 16)
  %28 = load ptr, ptr @eth_withoutfcs_handle, align 8
  %29 = tail call i32 @call_dissector(ptr noundef %28, ptr noundef %27, ptr noundef %1, ptr noundef %2)
  br label %.sink.split

30:                                               ; preds = %21
  %31 = add i32 %5, -16
  %32 = tail call fastcc zeroext i1 @is_esl_header(ptr noundef %0, i32 noundef %31)
  br i1 %32, label %33, label %42

33:                                               ; preds = %30
  %34 = load ptr, ptr @eth_withoutfcs_handle, align 8
  %.not37 = icmp eq ptr %34, null
  br i1 %.not37, label %39, label %35

35:                                               ; preds = %33
  %36 = tail call ptr @tvb_new_subset_length(ptr noundef %0, i32 noundef 0, i32 noundef %31)
  %37 = load ptr, ptr @eth_withoutfcs_handle, align 8
  %38 = tail call i32 @call_dissector(ptr noundef %37, ptr noundef %36, ptr noundef %1, ptr noundef %2)
  br label %39

39:                                               ; preds = %35, %33
  %40 = tail call ptr @tvb_new_subset_length(ptr noundef %0, i32 noundef %31, i32 noundef 16)
  %41 = tail call i32 @dissect_esl_header(ptr noundef %40, ptr poison, ptr noundef %2, ptr poison)
  br label %.sink.split

.sink.split:                                      ; preds = %23, %26, %39
  %.sink = phi i32 [ %31, %39 ], [ 0, %26 ], [ 0, %23 ]
  tail call fastcc void @modify_times(ptr noundef %0, i32 noundef %.sink, ptr noundef %1)
  br label %42

42:                                               ; preds = %.sink.split, %30
  %.032 = phi i1 [ false, %30 ], [ true, %.sink.split ]
  store i1 false, ptr @dissect_esl_heur.in_heur, align 1
  br label %43

43:                                               ; preds = %19, %4, %42
  %.0 = phi i1 [ %.032, %42 ], [ false, %4 ], [ false, %19 ]
  ret i1 %.0
}